target datalayout = "e-m:e-p270:32:32-p271:32:32-p272:64:64-i64:64-i128:128-f80:128-n8:16:32:64-S128"
target triple = "x86_64-pc-linux-gnu"

%struct.PsqlScanStateData = type { ptr, ptr, ptr, ptr, ptr, ptr, i32, i8, i8, ptr, ptr, i32, i32, i32, i32, ptr, i32, [4 x i8], i32, ptr, ptr }

; Function Attrs: nounwind uwtable
define dso_local void @psqlscan_emit(ptr noundef %0, ptr noundef %1, i32 noundef %2) #0 {
  %4 = alloca ptr, align 8
  %5 = alloca ptr, align 8
  %6 = alloca i32, align 4
  %7 = alloca ptr, align 8
  %8 = alloca ptr, align 8
  %9 = alloca i32, align 4
  %10 = alloca i8, align 1
  store ptr %0, ptr %4, align 8
  store ptr %1, ptr %5, align 8
  store i32 %2, ptr %6, align 4
  call void @llvm.lifetime.start.p0(i64 8, ptr %7) #12
  %11 = load ptr, ptr %4, align 8
  %12 = getelementptr inbounds nuw %struct.PsqlScanStateData, ptr %11, i32 0, i32 1
  %13 = load ptr, ptr %12, align 8
  store ptr %13, ptr %7, align 8
  %14 = load ptr, ptr %4, align 8
  %15 = getelementptr inbounds nuw %struct.PsqlScanStateData, ptr %14, i32 0, i32 7
  %16 = load i8, ptr %15, align 4, !range !6, !noundef !7
  %17 = trunc i8 %16 to i1
  br i1 %17, label %18, label %23

18:                                               ; preds = %3
  %19 = load ptr, ptr %7, align 8
  %20 = load ptr, ptr %5, align 8
  %21 = load i32, ptr %6, align 4
  %22 = sext i32 %21 to i64
  call void @appendBinaryPQExpBuffer(ptr noundef %19, ptr noundef %20, i64 noundef %22)
  br label %62

23:                                               ; preds = %3
  call void @llvm.lifetime.start.p0(i64 8, ptr %8) #12
  %24 = load ptr, ptr %4, align 8
  %25 = getelementptr inbounds nuw %struct.PsqlScanStateData, ptr %24, i32 0, i32 10
  %26 = load ptr, ptr %25, align 8
  store ptr %26, ptr %8, align 8
  call void @llvm.lifetime.start.p0(i64 4, ptr %9) #12
  %27 = load ptr, ptr %5, align 8
  %28 = load ptr, ptr %4, align 8
  %29 = getelementptr inbounds nuw %struct.PsqlScanStateData, ptr %28, i32 0, i32 9
  %30 = load ptr, ptr %29, align 8
  %31 = ptrtoint ptr %27 to i64
  %32 = ptrtoint ptr %30 to i64
  %33 = sub i64 %31, %32
  %34 = load ptr, ptr %8, align 8
  %35 = getelementptr inbounds i8, ptr %34, i64 %33
  store ptr %35, ptr %8, align 8
  store i32 0, ptr %9, align 4
  br label %36

36:                                               ; preds = %58, %23
  %37 = load i32, ptr %9, align 4
  %38 = load i32, ptr %6, align 4
  %39 = icmp slt i32 %37, %38
  br i1 %39, label %40, label %61

40:                                               ; preds = %36
  call void @llvm.lifetime.start.p0(i64 1, ptr %10) #12
  %41 = load ptr, ptr %5, align 8
  %42 = load i32, ptr %9, align 4
  %43 = sext i32 %42 to i64
  %44 = getelementptr inbounds i8, ptr %41, i64 %43
  %45 = load i8, ptr %44, align 1
  store i8 %45, ptr %10, align 1
  %46 = load i8, ptr %10, align 1
  %47 = sext i8 %46 to i32
  %48 = icmp eq i32 %47, -1
  br i1 %48, label %49, label %55

49:                                               ; preds = %40
  %50 = load ptr, ptr %8, align 8
  %51 = load i32, ptr %9, align 4
  %52 = sext i32 %51 to i64
  %53 = getelementptr inbounds i8, ptr %50, i64 %52
  %54 = load i8, ptr %53, align 1
  store i8 %54, ptr %10, align 1
  br label %55

55:                                               ; preds = %49, %40
  %56 = load ptr, ptr %7, align 8
  %57 = load i8, ptr %10, align 1
  call void @appendPQExpBufferChar(ptr noundef %56, i8 noundef signext %57)
  call void @llvm.lifetime.end.p0(i64 1, ptr %10) #12
  br label %58

58:                                               ; preds = %55
  %59 = load i32, ptr %9, align 4
  %60 = add i32 %59, 1
  store i32 %60, ptr %9, align 4
  br label %36, !llvm.loop !10

61:                                               ; preds = %36
  call void @llvm.lifetime.end.p0(i64 4, ptr %9) #12
  call void @llvm.lifetime.end.p0(i64 8, ptr %8) #12
  br label %62

62:                                               ; preds = %61, %18
  call void @llvm.lifetime.end.p0(i64 8, ptr %7) #12
  ret void
}