; Function Attrs: nounwind uwtable
define dso_local void @psqlscan_emit(ptr noundef readonly captures(none) %0, ptr noundef %1, i32 noundef %2) local_unnamed_addr #0 {
  %4 = getelementptr inbounds nuw i8, ptr %0, i64 8
  %5 = load ptr, ptr %4, align 8
  %6 = getelementptr inbounds nuw i8, ptr %0, i64 52
  %7 = load i8, ptr %6, align 4, !range !6, !noundef !7
  %8 = trunc nuw i8 %7 to i1
  br i1 %8, label %9, label %11

9:                                                ; preds = %3
  %10 = sext i32 %2 to i64
  tail call void @appendBinaryPQExpBuffer(ptr noundef %5, ptr noundef %1, i64 noundef %10) #27
  br label %.loopexit

11:                                               ; preds = %3
  %12 = getelementptr inbounds nuw i8, ptr %0, i64 64
  %13 = load ptr, ptr %12, align 8
  %14 = getelementptr inbounds nuw i8, ptr %0, i64 56
  %15 = load ptr, ptr %14, align 8
  %16 = ptrtoint ptr %1 to i64
  %17 = ptrtoint ptr %15 to i64
  %18 = sub i64 %16, %17
  %19 = getelementptr inbounds i8, ptr %13, i64 %18
  %20 = icmp sgt i32 %2, 0
  br i1 %20, label %.lr.ph.preheader, label %.loopexit

.lr.ph.preheader:                                 ; preds = %11
  %wide.trip.count = zext nneg i32 %2 to i64
  br label %.lr.ph

.lr.ph:                                           ; preds = %.lr.ph.preheader, %27
  %indvars.iv = phi i64 [ 0, %.lr.ph.preheader ], [ %indvars.iv.next, %27 ]
  %21 = getelementptr inbounds nuw i8, ptr %1, i64 %indvars.iv
  %22 = load i8, ptr %21, align 1
  %23 = icmp eq i8 %22, -1
  br i1 %23, label %24, label %27

24:                                               ; preds = %.lr.ph
  %25 = getelementptr inbounds nuw i8, ptr %19, i64 %indvars.iv
  %26 = load i8, ptr %25, align 1
  br label %27

27:                                               ; preds = %24, %.lr.ph
  %.0 = phi i8 [ %26, %24 ], [ %22, %.lr.ph ]
  tail call void @appendPQExpBufferChar(ptr noundef %5, i8 noundef signext %.0) #27
  %indvars.iv.next = add nuw nsw i64 %indvars.iv, 1
  %exitcond.not = icmp eq i64 %indvars.iv.next, %wide.trip.count
  br i1 %exitcond.not, label %.loopexit, label %.lr.ph, !llvm.loop !8

.loopexit:                                        ; preds = %27, %11, %9
  ret void
}